target datalayout = "e-m:e-p270:32:32-p271:32:32-p272:64:64-i64:64-i128:128-f80:128-n8:16:32:64-S128"
target triple = "x86_64-pc-linux-gnu"

%struct.ident_t = type { i32, i32, i32, i32, ptr }
%"struct.OpenSubdiv::v3_6_0::Osd::BufferDescriptor" = type { i32, i32, i32 }

@1 = private unnamed_addr constant %struct.ident_t { i32 0, i32 514, i32 0, i32 22, ptr @0 }, align 8

; Function Attrs: mustprogress nounwind uwtable
define linkonce_odr noundef ptr @_ZN10OpenSubdiv6v3_6_03Osd14elementAtIndexIfEEPT_S4_iRKNS1_16BufferDescriptorE(ptr noundef %0, i32 noundef %1, ptr noundef nonnull align 4 dereferenceable(12) %2) #5 comdat {
  %4 = alloca ptr, align 8
  %5 = alloca i32, align 4
  %6 = alloca ptr, align 8
  store ptr %0, ptr %4, align 8
  store i32 %1, ptr %5, align 4
  store ptr %2, ptr %6, align 8
  %7 = load ptr, ptr %4, align 8
  %8 = load i32, ptr %5, align 4
  %9 = load ptr, ptr %6, align 8
  %10 = getelementptr inbounds nuw %"struct.OpenSubdiv::v3_6_0::Osd::BufferDescriptor", ptr %9, i32 0, i32 2
  %11 = load i32, ptr %10, align 4
  %12 = mul nsw i32 %8, %11
  %13 = sext i32 %12 to i64
  %14 = getelementptr inbounds float, ptr %7, i64 %13
  ret ptr %14
}

; Function Attrs: mustprogress nounwind uwtable
define linkonce_odr noundef ptr @_ZN10OpenSubdiv6v3_6_03Osd14elementAtIndexIKfEEPT_S5_iRKNS1_16BufferDescriptorE(ptr noundef %0, i32 noundef %1, ptr noundef nonnull align 4 dereferenceable(12) %2) #5 comdat {
  %4 = alloca ptr, align 8
  %5 = alloca i32, align 4
  %6 = alloca ptr, align 8
  store ptr %0, ptr %4, align 8
  store i32 %1, ptr %5, align 4
  store ptr %2, ptr %6, align 8
  %7 = load ptr, ptr %4, align 8
  %8 = load i32, ptr %5, align 4
  %9 = load ptr, ptr %6, align 8
  %10 = getelementptr inbounds nuw %"struct.OpenSubdiv::v3_6_0::Osd::BufferDescriptor", ptr %9, i32 0, i32 2
  %11 = load i32, ptr %10, align 4
  %12 = mul nsw i32 %8, %11
  %13 = sext i32 %12 to i64
  %14 = getelementptr inbounds float, ptr %7, i64 %13
  ret ptr %14
}

; Function Attrs: noreturn nounwind uwtable
define linkonce_odr hidden void @__clang_call_terminate(ptr noundef %0) #4 comdat {
  %2 = call ptr @__cxa_begin_catch(ptr %0) #3
  call void @_ZSt9terminatev() #9
  unreachable
}

; Function Attrs: mustprogress uwtable
define internal void @_ZN10OpenSubdiv6v3_6_03OsdL4copyEPfiPKfRKNS1_16BufferDescriptorE(ptr noundef %0, i32 noundef %1, ptr noundef %2, ptr noundef nonnull align 4 dereferenceable(12) %3) #0 {
  %5 = alloca ptr, align 8
  %6 = alloca i32, align 4
  %7 = alloca ptr, align 8
  %8 = alloca ptr, align 8
  store ptr %0, ptr %5, align 8
  store i32 %1, ptr %6, align 4
  store ptr %2, ptr %7, align 8
  store ptr %3, ptr %8, align 8
  %9 = load ptr, ptr %5, align 8
  %10 = load i32, ptr %6, align 4
  %11 = load ptr, ptr %8, align 8
  %12 = call noundef ptr @_ZN10OpenSubdiv6v3_6_03Osd14elementAtIndexIfEEPT_S4_iRKNS1_16BufferDescriptorE(ptr noundef %9, i32 noundef %10, ptr noundef nonnull align 4 dereferenceable(12) %11)
  store ptr %12, ptr %5, align 8
  %13 = load ptr, ptr %5, align 8
  %14 = load ptr, ptr %7, align 8
  %15 = load ptr, ptr %8, align 8
  %16 = getelementptr inbounds nuw %"struct.OpenSubdiv::v3_6_0::Osd::BufferDescriptor", ptr %15, i32 0, i32 1
  %17 = load i32, ptr %16, align 4
  %18 = sext i32 %17 to i64
  %19 = mul i64 %18, 4
  call void @llvm.memcpy.p0.p0.i64(ptr align 4 %13, ptr align 4 %14, i64 %19, i1 false)
  ret void
}

; Function Attrs: mustprogress uwtable
define internal void @_ZN10OpenSubdiv6v3_6_03OsdL13addWithWeightEPfPKfifRKNS1_16BufferDescriptorE(ptr noundef %0, ptr noundef %1, i32 noundef %2, float noundef %3, ptr noundef nonnull align 4 dereferenceable(12) %4) #0 {
  %6 = alloca ptr, align 8
  %7 = alloca ptr, align 8
  %8 = alloca i32, align 4
  %9 = alloca float, align 4
  %10 = alloca ptr, align 8
  %11 = alloca i32, align 4
  store ptr %0, ptr %6, align 8
  store ptr %1, ptr %7, align 8
  store i32 %2, ptr %8, align 4
  store float %3, ptr %9, align 4
  store ptr %4, ptr %10, align 8
  %12 = load ptr, ptr %7, align 8
  %13 = load i32, ptr %8, align 4
  %14 = load ptr, ptr %10, align 8
  %15 = call noundef ptr @_ZN10OpenSubdiv6v3_6_03Osd14elementAtIndexIKfEEPT_S5_iRKNS1_16BufferDescriptorE(ptr noundef %12, i32 noundef %13, ptr noundef nonnull align 4 dereferenceable(12) %14)
  store ptr %15, ptr %7, align 8
  store i32 0, ptr %11, align 4
  br label %16

16:                                               ; preds = %35, %5
  %17 = load i32, ptr %11, align 4
  %18 = load ptr, ptr %10, align 8
  %19 = getelementptr inbounds nuw %"struct.OpenSubdiv::v3_6_0::Osd::BufferDescriptor", ptr %18, i32 0, i32 1
  %20 = load i32, ptr %19, align 4
  %21 = icmp slt i32 %17, %20
  br i1 %21, label %22, label %38

22:                                               ; preds = %16
  %23 = load ptr, ptr %7, align 8
  %24 = load i32, ptr %11, align 4
  %25 = sext i32 %24 to i64
  %26 = getelementptr inbounds float, ptr %23, i64 %25
  %27 = load float, ptr %26, align 4
  %28 = load float, ptr %9, align 4
  %29 = load ptr, ptr %6, align 8
  %30 = load i32, ptr %11, align 4
  %31 = sext i32 %30 to i64
  %32 = getelementptr inbounds float, ptr %29, i64 %31
  %33 = load float, ptr %32, align 4
  %34 = call float @llvm.fmuladd.f32(float %27, float %28, float %33)
  store float %34, ptr %32, align 4
  br label %35

35:                                               ; preds = %22
  %36 = load i32, ptr %11, align 4
  %37 = add nsw i32 %36, 1
  store i32 %37, ptr %11, align 4
  br label %16, !llvm.loop !7

38:                                               ; preds = %16
  ret void
}

; Function Attrs: mustprogress nounwind uwtable
define internal void @_ZN10OpenSubdiv6v3_6_03OsdL5clearEPfRKNS1_16BufferDescriptorE(ptr noundef %0, ptr noundef nonnull align 4 dereferenceable(12) %1) #5 {
  %3 = alloca ptr, align 8
  %4 = alloca ptr, align 8
  store ptr %0, ptr %3, align 8
  store ptr %1, ptr %4, align 8
  %5 = load ptr, ptr %3, align 8
  %6 = load ptr, ptr %4, align 8
  %7 = getelementptr inbounds nuw %"struct.OpenSubdiv::v3_6_0::Osd::BufferDescriptor", ptr %6, i32 0, i32 1
  %8 = load i32, ptr %7, align 4
  %9 = sext i32 %8 to i64
  %10 = mul i64 %9, 4
  call void @llvm.memset.p0.i64(ptr align 4 %5, i8 0, i64 %10, i1 false)
  ret void
}

; Function Attrs: norecurse nounwind uwtable
define internal void @_ZN10OpenSubdiv6v3_6_03Osd15OmpEvalStencilsEPKfRKNS1_16BufferDescriptorEPfS6_PKiS9_S9_S3_ii.omp_outlined(ptr noalias noundef %0, ptr noalias noundef %1, ptr noundef nonnull align 4 dereferenceable(4) %2, ptr noundef nonnull align 4 dereferenceable(4) %3, ptr noundef nonnull align 8 dereferenceable(8) %4, ptr noundef nonnull align 8 dereferenceable(8) %5, ptr noundef nonnull align 8 dereferenceable(8) %6, ptr noundef nonnull align 8 dereferenceable(8) %7, ptr noundef nonnull align 4 dereferenceable(12) %8, ptr noundef nonnull align 4 dereferenceable(12) %9, ptr noundef nonnull align 8 dereferenceable(8) %10, ptr noundef nonnull align 8 dereferenceable(8) %11, ptr noundef nonnull align 8 dereferenceable(8) %12) #2 personality ptr @__gxx_personality_v0 {
  %14 = alloca ptr, align 8
  %15 = alloca ptr, align 8
  %16 = alloca ptr, align 8
  %17 = alloca ptr, align 8
  %18 = alloca ptr, align 8
  %19 = alloca ptr, align 8
  %20 = alloca ptr, align 8
  %21 = alloca ptr, align 8
  %22 = alloca ptr, align 8
  %23 = alloca ptr, align 8
  %24 = alloca ptr, align 8
  %25 = alloca ptr, align 8
  %26 = alloca ptr, align 8
  %27 = alloca ptr, align 8
  %28 = alloca ptr, align 8
  %29 = alloca i32, align 4
  %30 = alloca i32, align 4
  %31 = alloca i32, align 4
  %32 = alloca i32, align 4
  %33 = alloca i32, align 4
  %34 = alloca i32, align 4
  %35 = alloca i32, align 4
  %36 = alloca i32, align 4
  %37 = alloca i32, align 4
  %38 = alloca i32, align 4
  %39 = alloca ptr, align 8
  %40 = alloca ptr, align 8
  %41 = alloca i32, align 4
  %42 = alloca ptr, align 8
  %43 = alloca i32, align 4
  store ptr %0, ptr %14, align 8
  store ptr %1, ptr %15, align 8
  store ptr %2, ptr %16, align 8
  store ptr %3, ptr %17, align 8
  store ptr %4, ptr %18, align 8
  store ptr %5, ptr %19, align 8
  store ptr %6, ptr %20, align 8
  store ptr %7, ptr %21, align 8
  store ptr %8, ptr %22, align 8
  store ptr %9, ptr %23, align 8
  store ptr %10, ptr %24, align 8
  store ptr %11, ptr %25, align 8
  store ptr %12, ptr %26, align 8
  %44 = load ptr, ptr %16, align 8
  %45 = load ptr, ptr %17, align 8
  %46 = load ptr, ptr %18, align 8
  %47 = load ptr, ptr %19, align 8
  %48 = load ptr, ptr %20, align 8
  %49 = load ptr, ptr %21, align 8
  %50 = load ptr, ptr %22, align 8
  %51 = load ptr, ptr %23, align 8
  %52 = load ptr, ptr %24, align 8
  %53 = load ptr, ptr %25, align 8
  %54 = load ptr, ptr %26, align 8
  store ptr %50, ptr %27, align 8
  store ptr %51, ptr %28, align 8
  %55 = load i32, ptr %44, align 4
  store i32 %55, ptr %30, align 4
  %56 = load i32, ptr %30, align 4
  %57 = sub nsw i32 %56, 0
  %58 = sdiv i32 %57, 1
  %59 = sub nsw i32 %58, 1
  store i32 %59, ptr %31, align 4
  store i32 0, ptr %32, align 4
  %60 = load i32, ptr %30, align 4
  %61 = icmp slt i32 0, %60
  br i1 %61, label %62, label %156

62:                                               ; preds = %13
  store i32 0, ptr %33, align 4
  %63 = load i32, ptr %31, align 4
  store i32 %63, ptr %34, align 4
  store i32 1, ptr %35, align 4
  store i32 0, ptr %36, align 4
  %64 = load ptr, ptr %14, align 8
  %65 = load i32, ptr %64, align 4
  call void @__kmpc_for_static_init_4(ptr @1, i32 %65, i32 34, ptr %36, ptr %33, ptr %34, ptr %35, i32 1, i32 1)
  %66 = load i32, ptr %34, align 4
  %67 = load i32, ptr %31, align 4
  %68 = icmp sgt i32 %66, %67
  br i1 %68, label %69, label %71

69:                                               ; preds = %62
  %70 = load i32, ptr %31, align 4
  br label %73

71:                                               ; preds = %62
  %72 = load i32, ptr %34, align 4
  br label %73

73:                                               ; preds = %71, %69
  %74 = phi i32 [ %70, %69 ], [ %72, %71 ]
  store i32 %74, ptr %34, align 4
  %75 = load i32, ptr %33, align 4
  store i32 %75, ptr %29, align 4
  br label %76

76:                                               ; preds = %149, %73
  %77 = load i32, ptr %29, align 4
  %78 = load i32, ptr %34, align 4
  %79 = icmp sle i32 %77, %78
  br i1 %79, label %80, label %152

80:                                               ; preds = %76
  %81 = load i32, ptr %29, align 4
  %82 = mul nsw i32 %81, 1
  %83 = add nsw i32 0, %82
  store i32 %83, ptr %37, align 4
  %84 = load i32, ptr %37, align 4
  %85 = load i32, ptr %45, align 4
  %86 = add nsw i32 %84, %85
  store i32 %86, ptr %38, align 4
  %87 = load ptr, ptr %46, align 8
  %88 = load ptr, ptr %47, align 8
  %89 = load i32, ptr %38, align 4
  %90 = sext i32 %89 to i64
  %91 = getelementptr inbounds i32, ptr %88, i64 %90
  %92 = load i32, ptr %91, align 4
  %93 = sext i32 %92 to i64
  %94 = getelementptr inbounds i32, ptr %87, i64 %93
  store ptr %94, ptr %39, align 8
  %95 = load ptr, ptr %48, align 8
  %96 = load ptr, ptr %47, align 8
  %97 = load i32, ptr %38, align 4
  %98 = sext i32 %97 to i64
  %99 = getelementptr inbounds i32, ptr %96, i64 %98
  %100 = load i32, ptr %99, align 4
  %101 = sext i32 %100 to i64
  %102 = getelementptr inbounds float, ptr %95, i64 %101
  store ptr %102, ptr %40, align 8
  %103 = invoke i32 @omp_get_thread_num()
          to label %104 unwind label %157

104:                                              ; preds = %80
  store i32 %103, ptr %41, align 4
  %105 = load ptr, ptr %49, align 8
  %106 = load i32, ptr %41, align 4
  %107 = load ptr, ptr %27, align 8
  %108 = getelementptr inbounds nuw %"struct.OpenSubdiv::v3_6_0::Osd::BufferDescriptor", ptr %107, i32 0, i32 1
  %109 = load i32, ptr %108, align 4
  %110 = mul nsw i32 %106, %109
  %111 = sext i32 %110 to i64
  %112 = getelementptr inbounds float, ptr %105, i64 %111
  store ptr %112, ptr %42, align 8
  %113 = load ptr, ptr %42, align 8
  %114 = load ptr, ptr %28, align 8
  invoke void @_ZN10OpenSubdiv6v3_6_03OsdL5clearEPfRKNS1_16BufferDescriptorE(ptr noundef %113, ptr noundef nonnull align 4 dereferenceable(12) %114)
          to label %115 unwind label %157

115:                                              ; preds = %104
  store i32 0, ptr %43, align 4
  br label %116

116:                                              ; preds = %139, %115
  %117 = load i32, ptr %43, align 4
  %118 = load ptr, ptr %52, align 8
  %119 = load i32, ptr %38, align 4
  %120 = sext i32 %119 to i64
  %121 = getelementptr inbounds i32, ptr %118, i64 %120
  %122 = load i32, ptr %121, align 4
  %123 = icmp slt i32 %117, %122
  br i1 %123, label %124, label %142

124:                                              ; preds = %116
  %125 = load ptr, ptr %42, align 8
  %126 = load ptr, ptr %53, align 8
  %127 = load ptr, ptr %39, align 8
  %128 = load i32, ptr %43, align 4
  %129 = sext i32 %128 to i64
  %130 = getelementptr inbounds i32, ptr %127, i64 %129
  %131 = load i32, ptr %130, align 4
  %132 = load ptr, ptr %40, align 8
  %133 = load i32, ptr %43, align 4
  %134 = sext i32 %133 to i64
  %135 = getelementptr inbounds float, ptr %132, i64 %134
  %136 = load float, ptr %135, align 4
  %137 = load ptr, ptr %27, align 8
  invoke void @_ZN10OpenSubdiv6v3_6_03OsdL13addWithWeightEPfPKfifRKNS1_16BufferDescriptorE(ptr noundef %125, ptr noundef %126, i32 noundef %131, float noundef %136, ptr noundef nonnull align 4 dereferenceable(12) %137)
          to label %138 unwind label %157

138:                                              ; preds = %124
  br label %139

139:                                              ; preds = %138
  %140 = load i32, ptr %43, align 4
  %141 = add nsw i32 %140, 1
  store i32 %141, ptr %43, align 4
  br label %116, !llvm.loop !5

142:                                              ; preds = %116
  %143 = load ptr, ptr %54, align 8
  %144 = load i32, ptr %37, align 4
  %145 = load ptr, ptr %42, align 8
  %146 = load ptr, ptr %28, align 8
  invoke void @_ZN10OpenSubdiv6v3_6_03OsdL4copyEPfiPKfRKNS1_16BufferDescriptorE(ptr noundef %143, i32 noundef %144, ptr noundef %145, ptr noundef nonnull align 4 dereferenceable(12) %146)
          to label %147 unwind label %157

147:                                              ; preds = %142
  br label %148

148:                                              ; preds = %147
  br label %149

149:                                              ; preds = %148
  %150 = load i32, ptr %29, align 4
  %151 = add nsw i32 %150, 1
  store i32 %151, ptr %29, align 4
  br label %76

152:                                              ; preds = %76
  br label %153

153:                                              ; preds = %152
  %154 = load ptr, ptr %14, align 8
  %155 = load i32, ptr %154, align 4
  call void @__kmpc_for_static_fini(ptr @1, i32 %155)
  br label %156

156:                                              ; preds = %153, %13
  ret void

157:                                              ; preds = %142, %124, %104, %80
  %158 = landingpad { ptr, i32 }
          catch ptr null
  %159 = extractvalue { ptr, i32 } %158, 0
  call void @__clang_call_terminate(ptr %159) #9
  unreachable
}