; Function Attrs: norecurse nounwind uwtable
define internal void @_ZN10OpenSubdiv6v3_6_03Osd15OmpEvalStencilsEPKfRKNS1_16BufferDescriptorEPfS6_PKiS9_S9_S3_ii.omp_outlined(ptr noalias nocapture noundef readonly %0, ptr noalias nocapture readnone %1, ptr nocapture noundef nonnull readonly align 4 dereferenceable(4) %2, ptr nocapture noundef nonnull readonly align 4 dereferenceable(4) %3, ptr nocapture noundef nonnull readonly align 8 dereferenceable(8) %4, ptr nocapture noundef nonnull readonly align 8 dereferenceable(8) %5, ptr nocapture noundef nonnull readonly align 8 dereferenceable(8) %6, ptr nocapture noundef nonnull readonly align 8 dereferenceable(8) %7, ptr nocapture noundef nonnull readonly align 4 dereferenceable(12) %8, ptr nocapture noundef nonnull readonly align 4 dereferenceable(12) %9, ptr nocapture noundef nonnull readonly align 8 dereferenceable(8) %10, ptr nocapture noundef nonnull readonly align 8 dereferenceable(8) %11, ptr nocapture noundef nonnull readonly align 8 dereferenceable(8) %12) #2 personality ptr @__gxx_personality_v0 {
  %14 = alloca i32, align 4
  %15 = alloca i32, align 4
  %16 = alloca i32, align 4
  %17 = alloca i32, align 4
  %18 = load i32, ptr %2, align 4
  %19 = icmp sgt i32 %18, 0
  br i1 %19, label %20, label %90

20:                                               ; preds = %13
  %21 = add nsw i32 %18, -1
  store i32 0, ptr %14, align 4
  store i32 %21, ptr %15, align 4
  store i32 1, ptr %16, align 4
  store i32 0, ptr %17, align 4
  %22 = load i32, ptr %0, align 4
  call void @__kmpc_for_static_init_4(ptr nonnull @1, i32 %22, i32 34, ptr nonnull %17, ptr nonnull %14, ptr nonnull %15, ptr nonnull %16, i32 1, i32 1)
  %23 = load i32, ptr %15, align 4
  %24 = call i32 @llvm.smin.i32(i32 %23, i32 %21)
  store i32 %24, ptr %15, align 4
  %25 = load i32, ptr %14, align 4
  %.not43 = icmp sgt i32 %25, %24
  br i1 %.not43, label %._crit_edge47, label %.lr.ph46

.lr.ph46:                                         ; preds = %20
  %26 = getelementptr inbounds nuw i8, ptr %8, i64 4
  %27 = getelementptr inbounds i8, ptr %9, i64 4
  %28 = getelementptr inbounds nuw i8, ptr %8, i64 8
  %29 = getelementptr inbounds i8, ptr %9, i64 8
  br label %30

30:                                               ; preds = %.lr.ph46, %._crit_edge
  %.03944 = phi i32 [ %25, %.lr.ph46 ], [ %88, %._crit_edge ]
  %31 = load i32, ptr %3, align 4
  %32 = add nsw i32 %31, %.03944
  %33 = load ptr, ptr %4, align 8
  %34 = load ptr, ptr %5, align 8
  %35 = sext i32 %32 to i64
  %36 = getelementptr inbounds i32, ptr %34, i64 %35
  %37 = load i32, ptr %36, align 4
  %38 = sext i32 %37 to i64
  %39 = getelementptr inbounds i32, ptr %33, i64 %38
  %40 = load ptr, ptr %6, align 8
  %41 = getelementptr inbounds float, ptr %40, i64 %38
  %42 = call i32 @omp_get_thread_num()
  %43 = load ptr, ptr %7, align 8
  %44 = load i32, ptr %26, align 4
  %45 = mul nsw i32 %44, %42
  %46 = sext i32 %45 to i64
  %47 = getelementptr inbounds float, ptr %43, i64 %46
  %.val = load i32, ptr %27, align 4
  %48 = sext i32 %.val to i64
  %49 = shl nsw i64 %48, 2
  call void @llvm.memset.p0.i64(ptr align 4 %47, i8 0, i64 %49, i1 false)
  %50 = load ptr, ptr %10, align 8
  %51 = getelementptr inbounds i32, ptr %50, i64 %35
  %52 = load i32, ptr %51, align 4
  %53 = icmp sgt i32 %52, 0
  %54 = load i32, ptr %26, align 4
  %55 = icmp sgt i32 %54, 0
  %or.cond = select i1 %53, i1 %55, i1 false
  br i1 %or.cond, label %.lr.ph.split, label %._crit_edge

.lr.ph.split:                                     ; preds = %30, %_ZN10OpenSubdiv6v3_6_03OsdL13addWithWeightEPfPKfifRKNS1_16BufferDescriptorE.exit
  %56 = phi ptr [ %76, %_ZN10OpenSubdiv6v3_6_03OsdL13addWithWeightEPfPKfifRKNS1_16BufferDescriptorE.exit ], [ %50, %30 ]
  %57 = phi i32 [ %77, %_ZN10OpenSubdiv6v3_6_03OsdL13addWithWeightEPfPKfifRKNS1_16BufferDescriptorE.exit ], [ %54, %30 ]
  %indvars.iv = phi i64 [ %indvars.iv.next, %_ZN10OpenSubdiv6v3_6_03OsdL13addWithWeightEPfPKfifRKNS1_16BufferDescriptorE.exit ], [ 0, %30 ]
  %58 = load ptr, ptr %11, align 8
  %59 = getelementptr inbounds i32, ptr %39, i64 %indvars.iv
  %60 = load i32, ptr %59, align 4
  %61 = getelementptr inbounds float, ptr %41, i64 %indvars.iv
  %62 = load float, ptr %61, align 4
  %63 = load i32, ptr %28, align 4
  %64 = mul nsw i32 %63, %60
  %65 = sext i32 %64 to i64
  %66 = getelementptr inbounds float, ptr %58, i64 %65
  %67 = icmp sgt i32 %57, 0
  br i1 %67, label %.lr.ph.i, label %_ZN10OpenSubdiv6v3_6_03OsdL13addWithWeightEPfPKfifRKNS1_16BufferDescriptorE.exit

.lr.ph.i:                                         ; preds = %.lr.ph.split, %.lr.ph.i
  %indvars.iv.i = phi i64 [ %indvars.iv.next.i, %.lr.ph.i ], [ 0, %.lr.ph.split ]
  %68 = getelementptr inbounds float, ptr %66, i64 %indvars.iv.i
  %69 = load float, ptr %68, align 4
  %70 = getelementptr inbounds float, ptr %47, i64 %indvars.iv.i
  %71 = load float, ptr %70, align 4
  %72 = call float @llvm.fmuladd.f32(float %69, float %62, float %71)
  store float %72, ptr %70, align 4
  %indvars.iv.next.i = add nuw nsw i64 %indvars.iv.i, 1
  %73 = load i32, ptr %26, align 4
  %74 = sext i32 %73 to i64
  %75 = icmp slt i64 %indvars.iv.next.i, %74
  br i1 %75, label %.lr.ph.i, label %_ZN10OpenSubdiv6v3_6_03OsdL13addWithWeightEPfPKfifRKNS1_16BufferDescriptorE.exit.loopexit, !llvm.loop !5

_ZN10OpenSubdiv6v3_6_03OsdL13addWithWeightEPfPKfifRKNS1_16BufferDescriptorE.exit.loopexit: ; preds = %.lr.ph.i
  %.pre = load ptr, ptr %10, align 8
  br label %_ZN10OpenSubdiv6v3_6_03OsdL13addWithWeightEPfPKfifRKNS1_16BufferDescriptorE.exit

_ZN10OpenSubdiv6v3_6_03OsdL13addWithWeightEPfPKfifRKNS1_16BufferDescriptorE.exit: ; preds = %_ZN10OpenSubdiv6v3_6_03OsdL13addWithWeightEPfPKfifRKNS1_16BufferDescriptorE.exit.loopexit, %.lr.ph.split
  %76 = phi ptr [ %.pre, %_ZN10OpenSubdiv6v3_6_03OsdL13addWithWeightEPfPKfifRKNS1_16BufferDescriptorE.exit.loopexit ], [ %56, %.lr.ph.split ]
  %77 = phi i32 [ %73, %_ZN10OpenSubdiv6v3_6_03OsdL13addWithWeightEPfPKfifRKNS1_16BufferDescriptorE.exit.loopexit ], [ %57, %.lr.ph.split ]
  %indvars.iv.next = add nuw nsw i64 %indvars.iv, 1
  %78 = getelementptr inbounds i32, ptr %76, i64 %35
  %79 = load i32, ptr %78, align 4
  %80 = sext i32 %79 to i64
  %81 = icmp slt i64 %indvars.iv.next, %80
  br i1 %81, label %.lr.ph.split, label %._crit_edge, !llvm.loop !7

._crit_edge:                                      ; preds = %_ZN10OpenSubdiv6v3_6_03OsdL13addWithWeightEPfPKfifRKNS1_16BufferDescriptorE.exit, %30
  %82 = load ptr, ptr %12, align 8
  %.val40 = load i32, ptr %27, align 4
  %.val41 = load i32, ptr %29, align 4
  %83 = mul nsw i32 %.val41, %.03944
  %84 = sext i32 %83 to i64
  %85 = getelementptr inbounds float, ptr %82, i64 %84
  %86 = sext i32 %.val40 to i64
  %87 = shl nsw i64 %86, 2
  call void @llvm.memcpy.p0.p0.i64(ptr align 4 %85, ptr readonly align 4 %47, i64 %87, i1 false)
  %88 = add nsw i32 %.03944, 1
  %89 = load i32, ptr %15, align 4
  %.not.not = icmp slt i32 %.03944, %89
  br i1 %.not.not, label %30, label %._crit_edge47

._crit_edge47:                                    ; preds = %._crit_edge, %20
  call void @__kmpc_for_static_fini(ptr nonnull @1, i32 %22)
  br label %90

90:                                               ; preds = %._crit_edge47, %13
  ret void
}